target datalayout = "e-m:e-p270:32:32-p271:32:32-p272:64:64-i64:64-i128:128-f80:128-n8:16:32:64-S128"
target triple = "x86_64-pc-linux-gnu"

%struct.FunctionCallInfoBaseData = type { ptr, ptr, ptr, i32, i8, i16, [0 x %struct.NullableDatum] }
%struct.NullableDatum = type { i64, i8 }
%struct.JsonLexContext = type { ptr, i64, i32, ptr, ptr, ptr, i8, i32, i32, i32, i32, ptr, ptr, ptr, i8, ptr, ptr }
%struct.JsonbInState = type { ptr, ptr, i8, ptr }
%struct.JsonSemAction = type { ptr, ptr, ptr, ptr, ptr, ptr, ptr, ptr, ptr, ptr }
%struct.StringInfoData = type { ptr, i32, i32, i32 }

@.str = private unnamed_addr constant [36 x i8] c"unsupported jsonb version number %d\00", align 1
@.str.1 = private unnamed_addr constant [8 x i8] c"jsonb.c\00", align 1
@__func__.jsonb_recv = private unnamed_addr constant [11 x i8] c"jsonb_recv\00", align 1

; Function Attrs: inlinehint nounwind uwtable
define internal i64 @PointerGetDatum(ptr noundef %0) #2 {
  %2 = alloca ptr, align 8
  store ptr %0, ptr %2, align 8
  %3 = load ptr, ptr %2, align 8
  %4 = ptrtoint ptr %3 to i64
  ret i64 %4
}

; Function Attrs: inlinehint nounwind uwtable
define internal i64 @jsonb_from_cstring(ptr noundef %0, i32 noundef %1, i1 noundef zeroext %2, ptr noundef %3) #2 {
  %5 = alloca i64, align 8
  %6 = alloca ptr, align 8
  %7 = alloca i32, align 4
  %8 = alloca i8, align 1
  %9 = alloca ptr, align 8
  %10 = alloca %struct.JsonLexContext, align 8
  %11 = alloca %struct.JsonbInState, align 8
  %12 = alloca %struct.JsonSemAction, align 8
  %13 = alloca i32, align 4
  store ptr %0, ptr %6, align 8
  store i32 %1, ptr %7, align 4
  %14 = zext i1 %2 to i8
  store i8 %14, ptr %8, align 1
  store ptr %3, ptr %9, align 8
  call void @llvm.lifetime.start.p0(i64 120, ptr %10) #8
  call void @llvm.lifetime.start.p0(i64 32, ptr %11) #8
  call void @llvm.lifetime.start.p0(i64 80, ptr %12) #8
  call void @llvm.memset.p0.i64(ptr align 8 %11, i8 0, i64 32, i1 false)
  call void @llvm.memset.p0.i64(ptr align 8 %12, i8 0, i64 80, i1 false)
  %15 = load ptr, ptr %6, align 8
  %16 = load i32, ptr %7, align 4
  %17 = sext i32 %16 to i64
  %18 = call i32 @GetDatabaseEncoding()
  %19 = call ptr @makeJsonLexContextCstringLen(ptr noundef %10, ptr noundef %15, i64 noundef %17, i32 noundef %18, i1 noundef zeroext true)
  %20 = load i8, ptr %8, align 1, !range !4, !noundef !5
  %21 = trunc i8 %20 to i1
  %22 = getelementptr inbounds nuw %struct.JsonbInState, ptr %11, i32 0, i32 2
  %23 = zext i1 %21 to i8
  store i8 %23, ptr %22, align 8
  %24 = load ptr, ptr %9, align 8
  %25 = getelementptr inbounds nuw %struct.JsonbInState, ptr %11, i32 0, i32 3
  store ptr %24, ptr %25, align 8
  %26 = getelementptr inbounds nuw %struct.JsonSemAction, ptr %12, i32 0, i32 0
  store ptr %11, ptr %26, align 8
  %27 = getelementptr inbounds nuw %struct.JsonSemAction, ptr %12, i32 0, i32 1
  store ptr @jsonb_in_object_start, ptr %27, align 8
  %28 = getelementptr inbounds nuw %struct.JsonSemAction, ptr %12, i32 0, i32 3
  store ptr @jsonb_in_array_start, ptr %28, align 8
  %29 = getelementptr inbounds nuw %struct.JsonSemAction, ptr %12, i32 0, i32 2
  store ptr @jsonb_in_object_end, ptr %29, align 8
  %30 = getelementptr inbounds nuw %struct.JsonSemAction, ptr %12, i32 0, i32 4
  store ptr @jsonb_in_array_end, ptr %30, align 8
  %31 = getelementptr inbounds nuw %struct.JsonSemAction, ptr %12, i32 0, i32 9
  store ptr @jsonb_in_scalar, ptr %31, align 8
  %32 = getelementptr inbounds nuw %struct.JsonSemAction, ptr %12, i32 0, i32 5
  store ptr @jsonb_in_object_field_start, ptr %32, align 8
  %33 = load ptr, ptr %9, align 8
  %34 = call zeroext i1 @pg_parse_json_or_errsave(ptr noundef %10, ptr noundef %12, ptr noundef %33)
  br i1 %34, label %36, label %35

35:                                               ; preds = %4
  store i64 0, ptr %5, align 8
  store i32 1, ptr %13, align 4
  br label %41

36:                                               ; preds = %4
  %37 = getelementptr inbounds nuw %struct.JsonbInState, ptr %11, i32 0, i32 1
  %38 = load ptr, ptr %37, align 8
  %39 = call ptr @JsonbValueToJsonb(ptr noundef %38)
  %40 = call i64 @PointerGetDatum(ptr noundef %39)
  store i64 %40, ptr %5, align 8
  store i32 1, ptr %13, align 4
  br label %41

41:                                               ; preds = %36, %35
  call void @llvm.lifetime.end.p0(i64 80, ptr %12) #8
  call void @llvm.lifetime.end.p0(i64 32, ptr %11) #8
  call void @llvm.lifetime.end.p0(i64 120, ptr %10) #8
  %42 = load i64, ptr %5, align 8
  ret i64 %42
}

; Function Attrs: inlinehint nounwind uwtable
define internal ptr @DatumGetPointer(i64 noundef %0) #2 {
  %2 = alloca i64, align 8
  store i64 %0, ptr %2, align 8
  %3 = load i64, ptr %2, align 8
  %4 = inttoptr i64 %3 to ptr
  ret ptr %4
}

; Function Attrs: nounwind uwtable
define dso_local i64 @jsonb_recv(ptr noundef %0) #0 {
  %2 = alloca ptr, align 8
  %3 = alloca ptr, align 8
  %4 = alloca i32, align 4
  %5 = alloca ptr, align 8
  %6 = alloca i32, align 4
  store ptr %0, ptr %2, align 8
  call void @llvm.lifetime.start.p0(i64 8, ptr %3) #8
  %7 = load ptr, ptr %2, align 8
  %8 = getelementptr inbounds nuw %struct.FunctionCallInfoBaseData, ptr %7, i32 0, i32 6
  %9 = getelementptr inbounds [0 x %struct.NullableDatum], ptr %8, i64 0, i64 0
  %10 = getelementptr inbounds nuw %struct.NullableDatum, ptr %9, i32 0, i32 0
  %11 = load i64, ptr %10, align 8
  %12 = call ptr @DatumGetPointer(i64 noundef %11)
  store ptr %12, ptr %3, align 8
  call void @llvm.lifetime.start.p0(i64 4, ptr %4) #8
  %13 = load ptr, ptr %3, align 8
  %14 = call i32 @pq_getmsgint(ptr noundef %13, i32 noundef 1)
  store i32 %14, ptr %4, align 4
  call void @llvm.lifetime.start.p0(i64 8, ptr %5) #8
  call void @llvm.lifetime.start.p0(i64 4, ptr %6) #8
  %15 = load i32, ptr %4, align 4
  %16 = icmp eq i32 %15, 1
  br i1 %16, label %17, label %27

17:                                               ; preds = %1
  %18 = load ptr, ptr %3, align 8
  %19 = load ptr, ptr %3, align 8
  %20 = getelementptr inbounds nuw %struct.StringInfoData, ptr %19, i32 0, i32 1
  %21 = load i32, ptr %20, align 8
  %22 = load ptr, ptr %3, align 8
  %23 = getelementptr inbounds nuw %struct.StringInfoData, ptr %22, i32 0, i32 3
  %24 = load i32, ptr %23, align 8
  %25 = sub i32 %21, %24
  %26 = call ptr @pq_getmsgtext(ptr noundef %18, i32 noundef %25, ptr noundef %6)
  store ptr %26, ptr %5, align 8
  br label %39

27:                                               ; preds = %1
  br label %28

28:                                               ; preds = %27
  br i1 true, label %29, label %31

29:                                               ; preds = %28
  %30 = call zeroext i1 @errstart_cold(i32 noundef 21, ptr noundef null) #10
  br i1 %30, label %33, label %36

31:                                               ; preds = %28
  %32 = call zeroext i1 @errstart(i32 noundef 21, ptr noundef null)
  br i1 %32, label %33, label %36

33:                                               ; preds = %31, %29
  %34 = load i32, ptr %4, align 4
  %35 = call i32 (ptr, ...) @errmsg_internal(ptr noundef @.str, i32 noundef %34)
  call void @errfinish(ptr noundef @.str.1, i32 noundef 99, ptr noundef @__func__.jsonb_recv)
  br label %36

36:                                               ; preds = %33, %31, %29
  unreachable

37:                                               ; No predecessors!
  br label %38

38:                                               ; preds = %37
  br label %39

39:                                               ; preds = %38, %17
  %40 = load ptr, ptr %5, align 8
  %41 = load i32, ptr %6, align 4
  %42 = call i64 @jsonb_from_cstring(ptr noundef %40, i32 noundef %41, i1 noundef zeroext false, ptr noundef null)
  call void @llvm.lifetime.end.p0(i64 4, ptr %6) #8
  call void @llvm.lifetime.end.p0(i64 8, ptr %5) #8
  call void @llvm.lifetime.end.p0(i64 4, ptr %4) #8
  call void @llvm.lifetime.end.p0(i64 8, ptr %3) #8
  ret i64 %42
}