; Function Attrs: nounwind uwtable
define dso_local i64 @jsonb_recv(ptr noundef readonly captures(none) %0) local_unnamed_addr #0 {
  %2 = alloca %struct.JsonLexContext, align 8
  %3 = alloca %struct.JsonbInState, align 8
  %4 = alloca %struct.JsonSemAction, align 8
  %5 = alloca i32, align 4
  %6 = getelementptr inbounds nuw i8, ptr %0, i64 32
  %7 = load i64, ptr %6, align 8
  %8 = inttoptr i64 %7 to ptr
  %9 = tail call i32 @pq_getmsgint(ptr noundef %8, i32 noundef 1) #11
  call void @llvm.lifetime.start.p0(i64 4, ptr nonnull %5) #11
  %10 = icmp eq i32 %9, 1
  br i1 %10, label %11, label %37

11:                                               ; preds = %1
  %12 = getelementptr inbounds nuw i8, ptr %8, i64 8
  %13 = load i32, ptr %12, align 8
  %14 = getelementptr inbounds nuw i8, ptr %8, i64 16
  %15 = load i32, ptr %14, align 8
  %16 = sub i32 %13, %15
  %17 = call ptr @pq_getmsgtext(ptr noundef %8, i32 noundef %16, ptr noundef nonnull %5) #11
  %18 = load i32, ptr %5, align 4
  call void @llvm.lifetime.start.p0(i64 120, ptr nonnull %2) #11
  call void @llvm.lifetime.start.p0(i64 32, ptr nonnull %3) #11
  call void @llvm.lifetime.start.p0(i64 80, ptr nonnull %4) #11
  call void @llvm.memset.p0.i64(ptr noundef nonnull align 8 dereferenceable(32) %3, i8 0, i64 24, i1 false)
  %19 = getelementptr inbounds nuw i8, ptr %4, i64 48
  call void @llvm.memset.p0.i64(ptr noundef nonnull align 8 dereferenceable(80) %19, i8 0, i64 24, i1 false)
  %20 = sext i32 %18 to i64
  %21 = call i32 @GetDatabaseEncoding() #11
  %22 = call ptr @makeJsonLexContextCstringLen(ptr noundef nonnull %2, ptr noundef %17, i64 noundef %20, i32 noundef %21, i1 noundef zeroext true) #11
  %23 = getelementptr inbounds nuw i8, ptr %3, i64 16
  store i8 0, ptr %23, align 8
  %24 = getelementptr inbounds nuw i8, ptr %3, i64 24
  store ptr null, ptr %24, align 8
  store ptr %3, ptr %4, align 8
  %25 = getelementptr inbounds nuw i8, ptr %4, i64 8
  store ptr @jsonb_in_object_start, ptr %25, align 8
  %26 = getelementptr inbounds nuw i8, ptr %4, i64 24
  store ptr @jsonb_in_array_start, ptr %26, align 8
  %27 = getelementptr inbounds nuw i8, ptr %4, i64 16
  store ptr @jsonb_in_object_end, ptr %27, align 8
  %28 = getelementptr inbounds nuw i8, ptr %4, i64 32
  store ptr @jsonb_in_array_end, ptr %28, align 8
  %29 = getelementptr inbounds nuw i8, ptr %4, i64 72
  store ptr @jsonb_in_scalar, ptr %29, align 8
  %30 = getelementptr inbounds nuw i8, ptr %4, i64 40
  store ptr @jsonb_in_object_field_start, ptr %30, align 8
  %31 = call zeroext i1 @pg_parse_json_or_errsave(ptr noundef nonnull %2, ptr noundef nonnull %4, ptr noundef null) #11
  br i1 %31, label %32, label %jsonb_from_cstring.exit

32:                                               ; preds = %11
  %33 = getelementptr inbounds nuw i8, ptr %3, i64 8
  %34 = load ptr, ptr %33, align 8
  %35 = call ptr @JsonbValueToJsonb(ptr noundef %34) #11
  %36 = ptrtoint ptr %35 to i64
  br label %jsonb_from_cstring.exit

jsonb_from_cstring.exit:                          ; preds = %11, %32
  %.0.i = phi i64 [ %36, %32 ], [ 0, %11 ]
  call void @llvm.lifetime.end.p0(i64 80, ptr nonnull %4) #11
  call void @llvm.lifetime.end.p0(i64 32, ptr nonnull %3) #11
  call void @llvm.lifetime.end.p0(i64 120, ptr nonnull %2) #11
  call void @llvm.lifetime.end.p0(i64 4, ptr nonnull %5) #11
  ret i64 %.0.i

37:                                               ; preds = %1
  %38 = tail call zeroext i1 @errstart_cold(i32 noundef 21, ptr noundef null) #12
  tail call void @llvm.assume(i1 %38)
  %39 = tail call i32 (ptr, ...) @errmsg_internal(ptr noundef nonnull @.str, i32 noundef %9) #11
  tail call void @errfinish(ptr noundef nonnull @.str.1, i32 noundef 99, ptr noundef nonnull @__func__.jsonb_recv) #11
  unreachable
}